; Function Attrs: nounwind sspstrong uwtable
define dso_local noundef i64 @rb_sym_to_s(i64 noundef %0) local_unnamed_addr #1 {
  %2 = load i64, ptr @rb_cString, align 8, !tbaa !26
  %3 = tail call i64 @rb_sym2str(i64 noundef %0) #29
  %4 = tail call align 8 ptr @llvm.threadlocal.address.p0(ptr align 8 @ruby_current_ec)
  %5 = load ptr, ptr %4, align 8, !tbaa !66
  %6 = tail call i64 @rb_wb_protected_newobj_of(ptr noundef %5, i64 noundef %2, i64 noundef 8197, i64 noundef 40) #29
  %7 = tail call fastcc i64 @str_replace_shared_without_enc(i64 noundef %6, i64 noundef %3)
  %8 = inttoptr i64 %3 to ptr
  %9 = load i64, ptr %8, align 8, !tbaa !7
  %10 = trunc i64 %9 to i32
  %11 = lshr i32 %10, 22
  %12 = and i32 %11, 127
  %13 = icmp eq i32 %12, 127
  br i1 %13, label %14, label %str_new_shared.exit

14:                                               ; preds = %1
  %15 = tail call i32 @rb_enc_get_index(i64 noundef %3) #29
  br label %str_new_shared.exit

str_new_shared.exit:                              ; preds = %1, %14
  %.0.i.i.i.i.i = phi i32 [ %15, %14 ], [ %12, %1 ]
  tail call void @rb_enc_set_index(i64 noundef %6, i32 noundef %.0.i.i.i.i.i) #29
  %16 = load i64, ptr %8, align 8, !tbaa !7
  %17 = and i64 %16, 3145728
  %18 = inttoptr i64 %6 to ptr
  %19 = load i64, ptr %18, align 8, !tbaa !7
  %20 = and i64 %19, -3178497
  %21 = or disjoint i64 %17, %20
  %22 = or disjoint i64 %21, 32768
  store i64 %22, ptr %18, align 8, !tbaa !7
  ret i64 %6
}